; Function Attrs: mustprogress uwtable
define hidden void @_ZN5ceres8internal28BlockRandomAccessDenseMatrix7SetZeroEv(ptr nocapture noundef nonnull readonly align 8 dereferenceable(64) %0) unnamed_addr #0 align 2 {
  %2 = getelementptr inbounds i8, ptr %0, i64 32
  %3 = load ptr, ptr %2, align 8
  %4 = getelementptr inbounds i8, ptr %0, i64 40
  %5 = load i32, ptr %4, align 8
  %6 = getelementptr inbounds i8, ptr %0, i64 48
  %7 = load ptr, ptr %6, align 8
  %8 = getelementptr inbounds i8, ptr %0, i64 44
  %9 = load i32, ptr %8, align 4
  %10 = mul nsw i32 %9, %9
  tail call void @_ZN5ceres8internal15ParallelSetZeroEPNS0_11ContextImplEiPdi(ptr noundef %3, i32 noundef %5, ptr noundef %7, i32 noundef %10)
  ret void
}